target datalayout = "e-m:e-p270:32:32-p271:32:32-p272:64:64-i64:64-i128:128-f80:128-n8:16:32:64-S128"
target triple = "x86_64-unknown-linux-gnu"

%struct.timespec = type { i64, i64 }
%"class.EA::StdC::Stopwatch" = type { i64, i64, i32, float }
%"class.EA::StdC::LimitStopwatch" = type { %"class.EA::StdC::Stopwatch", i64 }

; Function Attrs: mustprogress nounwind uwtable
define linkonce_odr dso_local noundef i64 @_ZN2EA4StdC9Stopwatch17GetStopwatchCycleEv() #1 comdat align 2 {
entry:
  %ts = alloca %struct.timespec, align 8
  %result = alloca i32, align 4
  %nNanoseconds = alloca i64, align 8
  %call = call i32 @clock_gettime(i32 noundef 1, ptr noundef %ts) #6
  store i32 %call, ptr %result, align 4
  %0 = load i32, ptr %result, align 4
  %cmp = icmp eq i32 %0, 22
  br i1 %cmp, label %if.then, label %if.end

if.then:                                          ; preds = %entry
  %call1 = call i32 @clock_gettime(i32 noundef 0, ptr noundef %ts) #6
  store i32 %call1, ptr %result, align 4
  br label %if.end

if.end:                                           ; preds = %if.then, %entry
  %tv_nsec = getelementptr inbounds %struct.timespec, ptr %ts, i32 0, i32 1
  %1 = load i64, ptr %tv_nsec, align 8
  %tv_sec = getelementptr inbounds %struct.timespec, ptr %ts, i32 0, i32 0
  %2 = load i64, ptr %tv_sec, align 8
  %mul = mul i64 %2, 1000000000
  %add = add i64 %1, %mul
  store i64 %add, ptr %nNanoseconds, align 8
  %3 = load i64, ptr %nNanoseconds, align 8
  ret i64 %3
}

; Function Attrs: mustprogress uwtable
define dso_local noundef float @_ZNK2EA4StdC14LimitStopwatch21GetTimeRemainingFloatEv(ptr noundef nonnull align 8 dereferenceable(32) %this) #0 align 2 {
entry:
  %this.addr = alloca ptr, align 8
  %nCurrentTime = alloca i64, align 8
  %fTimeRemaining = alloca float, align 4
  store ptr %this, ptr %this.addr, align 8
  %this1 = load ptr, ptr %this.addr, align 8
  %call = call noundef i64 @_ZN2EA4StdC9Stopwatch17GetStopwatchCycleEv()
  store i64 %call, ptr %nCurrentTime, align 8
  %mnEndTime = getelementptr inbounds %"class.EA::StdC::LimitStopwatch", ptr %this1, i32 0, i32 1
  %0 = load i64, ptr %mnEndTime, align 8
  %1 = load i64, ptr %nCurrentTime, align 8
  %sub = sub i64 %0, %1
  %conv = sitofp i64 %sub to float
  %mfStopwatchCyclesToUnitsCoefficient = getelementptr inbounds %"class.EA::StdC::Stopwatch", ptr %this1, i32 0, i32 3
  %2 = load float, ptr %mfStopwatchCyclesToUnitsCoefficient, align 4
  %mul = fmul float %conv, %2
  store float %mul, ptr %fTimeRemaining, align 4
  %3 = load float, ptr %fTimeRemaining, align 4
  ret float %3
}