; Function Attrs: mustprogress nounwind uwtable
define dso_local noundef float @_ZNK2EA4StdC14LimitStopwatch21GetTimeRemainingFloatEv(ptr noundef nonnull readonly align 8 captures(none) dereferenceable(32) %this) local_unnamed_addr #0 align 2 {
entry:
  %ts.i = alloca %struct.timespec, align 8
  call void @llvm.lifetime.start.p0(i64 16, ptr nonnull %ts.i)
  %call.i = call i32 @clock_gettime(i32 noundef 1, ptr noundef nonnull %ts.i) #7
  %cmp.i = icmp eq i32 %call.i, 22
  br i1 %cmp.i, label %if.then.i, label %_ZN2EA4StdC9Stopwatch17GetStopwatchCycleEv.exit

if.then.i:                                        ; preds = %entry
  %call1.i = call i32 @clock_gettime(i32 noundef 0, ptr noundef nonnull %ts.i) #7
  br label %_ZN2EA4StdC9Stopwatch17GetStopwatchCycleEv.exit

_ZN2EA4StdC9Stopwatch17GetStopwatchCycleEv.exit:  ; preds = %entry, %if.then.i
  %tv_nsec.i = getelementptr inbounds nuw i8, ptr %ts.i, i64 8
  %0 = load i64, ptr %tv_nsec.i, align 8
  %1 = load i64, ptr %ts.i, align 8
  call void @llvm.lifetime.end.p0(i64 16, ptr nonnull %ts.i)
  %mnEndTime = getelementptr inbounds nuw i8, ptr %this, i64 24
  %2 = load i64, ptr %mnEndTime, align 8
  %mul.i.neg = mul i64 %1, -1000000000
  %add.i.neg = sub i64 %mul.i.neg, %0
  %sub = add i64 %add.i.neg, %2
  %conv = sitofp i64 %sub to float
  %mfStopwatchCyclesToUnitsCoefficient = getelementptr inbounds nuw i8, ptr %this, i64 20
  %3 = load float, ptr %mfStopwatchCyclesToUnitsCoefficient, align 4
  %mul = fmul float %3, %conv
  ret float %mul
}